target datalayout = "e-m:e-p270:32:32-p271:32:32-p272:64:64-i64:64-i128:128-f80:128-n8:16:32:64-S128"
target triple = "x86_64-pc-linux-gnu"

%struct.SMgrRelationData = type { %struct.RelFileLocatorBackend, i32, [4 x i32], i32, [4 x i32], [4 x ptr], i32, %struct.dlist_node }
%struct.RelFileLocatorBackend = type { %struct.RelFileLocator, i32 }
%struct.RelFileLocator = type { i32, i32, i32 }
%struct.dlist_node = type { ptr, ptr }
%struct._MdfdVec = type { i32, i32 }

@.str.2 = private unnamed_addr constant [5 x i8] c"md.c\00", align 1
@.str.13 = private unnamed_addr constant [16 x i8] c"segment too big\00", align 1
@__func__.mdnblocks = private unnamed_addr constant [10 x i8] c"mdnblocks\00", align 1
@.str.24 = private unnamed_addr constant [39 x i8] c"could not seek to end of file \22%s\22: %m\00", align 1
@__func__._mdnblocks = private unnamed_addr constant [11 x i8] c"_mdnblocks\00", align 1

; Function Attrs: nounwind uwtable
define internal i32 @_mdnblocks(ptr noundef %0, i32 noundef %1, ptr noundef %2) #0 {
  %4 = alloca ptr, align 8
  %5 = alloca i32, align 4
  %6 = alloca ptr, align 8
  %7 = alloca i64, align 8
  store ptr %0, ptr %4, align 8
  store i32 %1, ptr %5, align 4
  store ptr %2, ptr %6, align 8
  call void @llvm.lifetime.start.p0(i64 8, ptr %7) #10
  %8 = load ptr, ptr %6, align 8
  %9 = getelementptr inbounds nuw %struct._MdfdVec, ptr %8, i32 0, i32 0
  %10 = load i32, ptr %9, align 4
  %11 = call i64 @FileSize(i32 noundef %10)
  store i64 %11, ptr %7, align 8
  %12 = load i64, ptr %7, align 8
  %13 = icmp slt i64 %12, 0
  br i1 %13, label %14, label %30

14:                                               ; preds = %3
  br label %15

15:                                               ; preds = %14
  br i1 true, label %16, label %18

16:                                               ; preds = %15
  %17 = call zeroext i1 @errstart_cold(i32 noundef 21, ptr noundef null) #12
  br i1 %17, label %20, label %27

18:                                               ; preds = %15
  %19 = call zeroext i1 @errstart(i32 noundef 21, ptr noundef null)
  br i1 %19, label %20, label %27

20:                                               ; preds = %18, %16
  %21 = call i32 @errcode_for_file_access()
  %22 = load ptr, ptr %6, align 8
  %23 = getelementptr inbounds nuw %struct._MdfdVec, ptr %22, i32 0, i32 0
  %24 = load i32, ptr %23, align 4
  %25 = call ptr @FilePathName(i32 noundef %24)
  %26 = call i32 (ptr, ...) @errmsg(ptr noundef @.str.24, ptr noundef %25)
  call void @errfinish(ptr noundef @.str.2, i32 noundef 1747, ptr noundef @__func__._mdnblocks)
  br label %27

27:                                               ; preds = %20, %18, %16
  unreachable

28:                                               ; No predecessors!
  br label %29

29:                                               ; preds = %28
  br label %30

30:                                               ; preds = %29, %3
  %31 = load i64, ptr %7, align 8
  %32 = sdiv i64 %31, 8192
  %33 = trunc i64 %32 to i32
  call void @llvm.lifetime.end.p0(i64 8, ptr %7) #10
  ret i32 %33
}

; Function Attrs: nounwind uwtable
define dso_local i32 @mdnblocks(ptr noundef %0, i32 noundef %1) #0 {
  %3 = alloca i32, align 4
  %4 = alloca ptr, align 8
  %5 = alloca i32, align 4
  %6 = alloca ptr, align 8
  %7 = alloca i32, align 4
  %8 = alloca i32, align 4
  %9 = alloca i32, align 4
  store ptr %0, ptr %4, align 8
  store i32 %1, ptr %5, align 4
  call void @llvm.lifetime.start.p0(i64 8, ptr %6) #10
  call void @llvm.lifetime.start.p0(i64 4, ptr %7) #10
  call void @llvm.lifetime.start.p0(i64 4, ptr %8) #10
  %10 = load ptr, ptr %4, align 8
  %11 = load i32, ptr %5, align 4
  %12 = call ptr @mdopenfork(ptr noundef %10, i32 noundef %11, i32 noundef 1)
  %13 = load ptr, ptr %4, align 8
  %14 = getelementptr inbounds nuw %struct.SMgrRelationData, ptr %13, i32 0, i32 4
  %15 = load i32, ptr %5, align 4
  %16 = sext i32 %15 to i64
  %17 = getelementptr inbounds [4 x i32], ptr %14, i64 0, i64 %16
  %18 = load i32, ptr %17, align 4
  %19 = sub i32 %18, 1
  store i32 %19, ptr %8, align 4
  %20 = load ptr, ptr %4, align 8
  %21 = getelementptr inbounds nuw %struct.SMgrRelationData, ptr %20, i32 0, i32 5
  %22 = load i32, ptr %5, align 4
  %23 = sext i32 %22 to i64
  %24 = getelementptr inbounds [4 x ptr], ptr %21, i64 0, i64 %23
  %25 = load ptr, ptr %24, align 8
  %26 = load i32, ptr %8, align 4
  %27 = zext i32 %26 to i64
  %28 = getelementptr inbounds nuw %struct._MdfdVec, ptr %25, i64 %27
  store ptr %28, ptr %6, align 8
  br label %29

29:                                               ; preds = %67, %2
  %30 = load ptr, ptr %4, align 8
  %31 = load i32, ptr %5, align 4
  %32 = load ptr, ptr %6, align 8
  %33 = call i32 @_mdnblocks(ptr noundef %30, i32 noundef %31, ptr noundef %32)
  store i32 %33, ptr %7, align 4
  %34 = load i32, ptr %7, align 4
  %35 = icmp ugt i32 %34, 131072
  br i1 %35, label %36, label %47

36:                                               ; preds = %29
  br label %37

37:                                               ; preds = %36
  br i1 true, label %38, label %40

38:                                               ; preds = %37
  %39 = call zeroext i1 @errstart_cold(i32 noundef 22, ptr noundef null) #12
  br i1 %39, label %42, label %44

40:                                               ; preds = %37
  %41 = call zeroext i1 @errstart(i32 noundef 22, ptr noundef null)
  br i1 %41, label %42, label %44

42:                                               ; preds = %40, %38
  %43 = call i32 (ptr, ...) @errmsg_internal(ptr noundef @.str.13)
  call void @errfinish(ptr noundef @.str.2, i32 noundef 1133, ptr noundef @__func__.mdnblocks)
  br label %44

44:                                               ; preds = %42, %40, %38
  unreachable

45:                                               ; No predecessors!
  br label %46

46:                                               ; preds = %45
  br label %47

47:                                               ; preds = %46, %29
  %48 = load i32, ptr %7, align 4
  %49 = icmp ult i32 %48, 131072
  br i1 %49, label %50, label %55

50:                                               ; preds = %47
  %51 = load i32, ptr %8, align 4
  %52 = mul i32 %51, 131072
  %53 = load i32, ptr %7, align 4
  %54 = add i32 %52, %53
  store i32 %54, ptr %3, align 4
  store i32 1, ptr %9, align 4
  br label %68

55:                                               ; preds = %47
  %56 = load i32, ptr %8, align 4
  %57 = add i32 %56, 1
  store i32 %57, ptr %8, align 4
  %58 = load ptr, ptr %4, align 8
  %59 = load i32, ptr %5, align 4
  %60 = load i32, ptr %8, align 4
  %61 = call ptr @_mdfd_openseg(ptr noundef %58, i32 noundef %59, i32 noundef %60, i32 noundef 0)
  store ptr %61, ptr %6, align 8
  %62 = load ptr, ptr %6, align 8
  %63 = icmp eq ptr %62, null
  br i1 %63, label %64, label %67

64:                                               ; preds = %55
  %65 = load i32, ptr %8, align 4
  %66 = mul i32 %65, 131072
  store i32 %66, ptr %3, align 4
  store i32 1, ptr %9, align 4
  br label %68

67:                                               ; preds = %55
  br label %29

68:                                               ; preds = %64, %50
  call void @llvm.lifetime.end.p0(i64 4, ptr %8) #10
  call void @llvm.lifetime.end.p0(i64 4, ptr %7) #10
  call void @llvm.lifetime.end.p0(i64 8, ptr %6) #10
  %69 = load i32, ptr %3, align 4
  ret i32 %69
}