; Function Attrs: nounwind uwtable
define dso_local i32 @mdnblocks(ptr noundef captures(none) %0, i32 noundef %1) local_unnamed_addr #0 {
  %3 = tail call fastcc ptr @mdopenfork(ptr noundef %0, i32 noundef %1, i32 noundef 1)
  %4 = getelementptr inbounds nuw i8, ptr %0, i64 40
  %5 = sext i32 %1 to i64
  %6 = getelementptr inbounds [4 x i32], ptr %4, i64 0, i64 %5
  %7 = load i32, ptr %6, align 4
  %8 = add i32 %7, -1
  %9 = getelementptr inbounds nuw i8, ptr %0, i64 56
  %10 = getelementptr inbounds [4 x ptr], ptr %9, i64 0, i64 %5
  %11 = load ptr, ptr %10, align 8
  %12 = zext i32 %8 to i64
  %13 = getelementptr inbounds nuw %struct._MdfdVec, ptr %11, i64 %12
  br label %14

14:                                               ; preds = %34, %2
  %.021 = phi ptr [ %13, %2 ], [ %36, %34 ]
  %.0 = phi i32 [ %8, %2 ], [ %35, %34 ]
  %15 = load i32, ptr %.021, align 4
  %16 = tail call i64 @FileSize(i32 noundef %15) #15
  %17 = icmp slt i64 %16, 0
  br i1 %17, label %18, label %_mdnblocks.exit

18:                                               ; preds = %14
  %19 = tail call zeroext i1 @errstart_cold(i32 noundef 21, ptr noundef null) #17
  tail call void @llvm.assume(i1 %19)
  %20 = tail call i32 @errcode_for_file_access() #15
  %21 = load i32, ptr %.021, align 4
  %22 = tail call ptr @FilePathName(i32 noundef %21) #15
  %23 = tail call i32 (ptr, ...) @errmsg(ptr noundef nonnull @.str.24, ptr noundef %22) #15
  tail call void @errfinish(ptr noundef nonnull @.str.2, i32 noundef 1747, ptr noundef nonnull @__func__._mdnblocks) #15
  unreachable

_mdnblocks.exit:                                  ; preds = %14
  %24 = lshr i64 %16, 13
  %25 = trunc i64 %24 to i32
  %26 = icmp ugt i32 %25, 131072
  br i1 %26, label %27, label %30

27:                                               ; preds = %_mdnblocks.exit
  %28 = tail call zeroext i1 @errstart_cold(i32 noundef 22, ptr noundef null) #17
  tail call void @llvm.assume(i1 %28)
  %29 = tail call i32 (ptr, ...) @errmsg_internal(ptr noundef nonnull @.str.13) #15
  tail call void @errfinish(ptr noundef nonnull @.str.2, i32 noundef 1133, ptr noundef nonnull @__func__.mdnblocks) #15
  unreachable

30:                                               ; preds = %_mdnblocks.exit
  %.not = icmp eq i32 %25, 131072
  br i1 %.not, label %34, label %31

31:                                               ; preds = %30
  %32 = shl i32 %.0, 17
  %33 = add nuw i32 %32, %25
  br label %40

34:                                               ; preds = %30
  %35 = add i32 %.0, 1
  %36 = tail call fastcc ptr @_mdfd_openseg(ptr noundef %0, i32 noundef %1, i32 noundef %35, i32 noundef 0)
  %37 = icmp eq ptr %36, null
  br i1 %37, label %38, label %14

38:                                               ; preds = %34
  %39 = shl i32 %35, 17
  br label %40

40:                                               ; preds = %38, %31
  %.020 = phi i32 [ %33, %31 ], [ %39, %38 ]
  ret i32 %.020
}